Certificate:
    Data:
        Version: 3 (0x2)
        Serial Number:
            61:5a:a1:d9:c7:7d:2a:89:8f:3d:19:07:b2:1d:f6:d0:71:93:39:ec
        Signature Algorithm: sha256WithRSAEncryption
        Issuer: DC=org, DC=simple, O=Simple Inc, CN=Simple Root CA
        Validity
            Not Before: May 14 02:10:42 2025 GMT
            Not After : May 14 02:10:42 2035 GMT
        Subject: DC=org, DC=simple, O=Simple Inc, CN=Simple Signing CA
        Subject Public Key Info:
            Public Key Algorithm: rsaEncryption
                Public-Key: (2048 bit)
                Modulus:
                    00:bc:d4:b6:46:24:90:db:92:87:ea:a2:20:11:b6:
                    75:10:6e:2f:de:e7:9e:d9:e4:76:8c:f5:26:cc:3c:
                    df:6c:1c:00:9c:53:24:a4:cc:e5:fc:46:de:d4:e2:
                    bc:00:b7:90:fb:f0:93:9b:8a:02:32:fd:9d:71:f7:
                    e4:ac:7a:a8:24:c6:b9:56:5b:12:a8:d5:74:ee:d3:
                    9c:bc:bf:27:53:24:07:47:a7:7a:3f:4f:17:b5:c7:
                    9b:67:a4:70:a9:52:c3:91:5e:0d:00:7c:e3:79:9f:
                    d8:42:4a:74:e1:e0:fd:a6:5c:a6:59:8c:ab:c9:67:
                    8a:81:12:a9:fb:f9:01:b5:69:65:e8:29:a1:88:d8:
                    6d:60:70:19:b4:ff:fa:34:36:be:d7:f2:69:8a:3a:
                    67:63:64:5e:11:ee:3a:2c:93:38:39:19:dc:e2:ec:
                    dd:11:ac:6f:cc:19:ec:b7:21:df:54:6e:5a:68:f1:
                    49:6b:f4:f5:3c:c2:03:d6:3b:9d:d5:09:4c:f6:20:
                    e3:2d:2e:1b:03:69:83:ac:79:64:f3:9e:4a:03:9d:
                    ea:4c:26:21:46:0c:27:4a:7f:83:69:3f:f7:4c:7e:
                    dd:70:6b:3d:ea:c3:72:ee:03:ad:b9:73:ef:ce:57:
                    74:7a:76:21:3d:fe:8c:f4:5d:0a:98:6d:ce:4e:25:
                    ff:f7
                Exponent: 65537 (0x10001)
        X509v3 extensions:
            X509v3 Key Usage: critical
                Certificate Sign, CRL Sign
            X509v3 Basic Constraints: critical
                CA:TRUE, pathlen:0
            X509v3 Subject Key Identifier: 
                96:1C:95:E8:18:C5:66:1D:77:B0:53:73:3C:A4:B7:C7:D2:63:0E:4C
            X509v3 Authority Key Identifier: 
                0D:97:3F:5F:F4:BF:E4:26:C9:43:4C:66:EE:32:79:D2:01:8A:5B:CE
    Signature Algorithm: sha256WithRSAEncryption
    Signature Value:
        50:d0:90:94:d2:24:00:f8:ac:18:51:11:d8:8e:01:4a:1a:40:
        7c:8b:5e:46:f0:ff:34:cb:4a:15:d3:13:c0:8d:2f:a6:0f:49:
        00:dd:1d:92:d9:13:d4:de:59:9e:eb:34:0d:a3:d8:57:8e:65:
        30:95:3a:85:a4:41:15:4e:0d:1b:8a:38:81:ba:b1:61:ec:f6:
        4f:66:ed:0e:5a:4d:69:f7:79:18:87:f7:de:65:3b:42:20:68:
        bd:af:a1:e8:ba:20:0d:f8:a0:b9:8b:8d:79:eb:7d:07:38:ec:
        1b:94:5e:4d:8d:9c:ea:4b:ac:ec:48:58:61:5c:55:d7:84:47:
        75:ad:27:3e:cb:69:35:41:39:13:0f:79:cd:79:4d:f9:84:ad:
        1b:45:1b:0f:51:36:e0:27:37:14:c6:e6:6d:28:1b:47:53:3f:
        83:6d:c8:4c:5c:15:7a:8b:1a:bb:53:b0:34:cb:81:b1:09:2c:
        0a:d8:84:d4:ca:9f:4b:b7:3d:47:75:c2:1d:55:47:52:42:31:
        02:69:6c:54:63:1e:fe:ee:92:d8:ae:64:42:02:d4:6f:b0:e0:
        79:f8:e0:46:b0:75:25:66:9b:37:5e:e2:bb:4b:75:03:52:3e:
        50:53:29:87:f0:d0:7a:9f:82:cc:92:71:ef:c1:78:9b:95:e8:
        7b:44:18:96
-----BEGIN CERTIFICATE-----
MIIDrTCCApWgAwIBAgIUYVqh2cd9KomPPRkHsh320HGTOewwDQYJKoZIhvcNAQEL
BQAwWzETMBEGCgmSJomT8ixkARkWA29yZzEWMBQGCgmSJomT8ixkARkWBnNpbXBs
ZTETMBEGA1UECgwKU2ltcGxlIEluYzEXMBUGA1UEAwwOU2ltcGxlIFJvb3QgQ0Ew
HhcNMjUwNTE0MDIxMDQyWhcNMzUwNTE0MDIxMDQyWjBeMRMwEQYKCZImiZPyLGQB
GRYDb3JnMRYwFAYKCZImiZPyLGQBGRYGc2ltcGxlMRMwEQYDVQQKDApTaW1wbGUg
SW5jMRowGAYDVQQDDBFTaW1wbGUgU2lnbmluZyBDQTCCASIwDQYJKoZIhvcNAQEB
BQADggEPADCCAQoCggEBALzUtkYkkNuSh+qiIBG2dRBuL97nntnkdoz1Jsw832wc
AJxTJKTM5fxG3tTivAC3kPvwk5uKAjL9nXH35Kx6qCTGuVZbEqjVdO7TnLy/J1Mk
B0enej9PF7XHm2ekcKlSw5FeDQB843mf2EJKdOHg/aZcplmMq8lnioESqfv5AbVp
ZegpoYjYbWBwGbT/+jQ2vtfyaYo6Z2NkXhHuOiyTODkZ3OLs3RGsb8wZ7Lch31Ru
WmjxSWv09TzCA9Y7ndUJTPYg4y0uGwNpg6x5ZPOeSgOd6kwmIUYMJ0p/g2k/90x+
3XBrPerDcu4Drblz785XdHp2IT3+jPRdCphtzk4l//cCAwEAAaNmMGQwDgYDVR0P
AQH/BAQDAgEGMBIGA1UdEwEB/wQIMAYBAf8CAQAwHQYDVR0OBBYEFJYclegYxWYd
d7BTczykt8fSYw5MMB8GA1UdIwQYMBaAFA2XP1/0v+QmyUNMZu4yedIBilvOMA0G
CSqGSIb3DQEBCwUAA4IBAQBQ0JCU0iQA+KwYURHYjgFKGkB8i15G8P80y0oV0xPA
jS+mD0kA3R2S2RPU3lme6zQNo9hXjmUwlTqFpEEVTg0bijiBurFh7PZPZu0OWk1p
93kYh/feZTtCIGi9r6HouiAN+KC5i415630HOOwblF5NjZzqS6zsSFhhXFXXhEd1
rSc+y2k1QTkTD3nNeU35hK0bRRsPUTbgJzcUxuZtKBtHUz+DbchMXBV6ixq7U7A0
y4GxCSwK2ITUyp9Ltz1HdcIdVUdSQjECaWxUYx7+7pLYrmRCAtRvsOB5+OBGsHUl
Zps3XuK7S3UDUj5QUymH8NB6n4LMknHvwXibleh7RBiW
-----END CERTIFICATE-----
