Certificate:
    Data:
        Version: 3 (0x2)
        Serial Number:
            17:73:14:b1:ec:9d:d3:e8:26:46:12:65:2e:5d:3c:b9:54:36:90:14
        Signature Algorithm: sha256WithRSAEncryption
        Issuer: DC=org, DC=simple, O=Simple Inc, CN=Simple Signing CA
        Validity
            Not Before: May 14 02:31:04 2025 GMT
            Not After : May 14 02:31:04 2027 GMT
        Subject: DC=org, DC=simple, O=Simple Inc, CN=www.simple.org
        Subject Public Key Info:
            Public Key Algorithm: rsaEncryption
                Public-Key: (2048 bit)
                Modulus:
                    00:9b:ac:16:64:b4:5e:43:5e:5c:88:7d:c1:99:cf:
                    24:f3:eb:77:6f:65:ed:73:33:a7:93:9f:7e:f5:64:
                    0a:aa:3f:97:4e:3c:9a:0f:31:cb:ff:f7:f2:9d:89:
                    41:d7:b7:66:d5:13:6a:f4:d8:21:46:ae:d8:9a:90:
                    83:60:4f:78:05:13:bf:ba:16:ea:39:e0:ae:7a:cd:
                    a7:d1:f0:87:95:10:50:fc:f0:31:ca:fd:bd:23:84:
                    98:dd:a1:dc:50:61:f3:3d:3c:72:0d:a2:58:4a:ef:
                    fd:d4:37:9a:0c:62:39:76:4d:46:c4:d1:a5:ea:cf:
                    86:25:b9:cf:86:cf:19:db:4a:be:b1:b7:58:c1:c9:
                    c8:69:8f:9f:21:6c:d8:31:58:fa:21:34:93:55:b0:
                    52:0d:33:94:ae:5a:d0:7a:70:86:ea:b5:9d:18:8b:
                    99:c3:94:19:93:d6:a3:c0:2d:3c:98:33:9b:51:29:
                    34:e4:20:dc:f3:e4:ed:8b:b6:80:48:70:2c:88:5a:
                    ff:59:a9:0f:05:30:9c:68:ab:a0:03:6c:13:d0:41:
                    42:79:0f:5d:29:52:25:2d:ff:ff:02:5f:81:50:65:
                    41:88:ac:fb:b0:dc:c1:8d:a8:db:de:d0:8e:42:80:
                    fe:68:5d:12:49:25:ce:ce:5b:dd:8e:d3:cb:ce:76:
                    72:95
                Exponent: 65537 (0x10001)
        X509v3 extensions:
            X509v3 Key Usage: critical
                Digital Signature, Key Encipherment
            X509v3 Basic Constraints: 
                CA:FALSE
            X509v3 Extended Key Usage: 
                TLS Web Server Authentication, TLS Web Client Authentication
            X509v3 Subject Key Identifier: 
                C9:83:7B:73:38:B5:72:04:69:16:D4:ED:CA:BA:9F:79:98:AF:57:E9
            X509v3 Authority Key Identifier: 
                96:1C:95:E8:18:C5:66:1D:77:B0:53:73:3C:A4:B7:C7:D2:63:0E:4C
            X509v3 Subject Alternative Name: 
                DNS:www.simple.org
    Signature Algorithm: sha256WithRSAEncryption
    Signature Value:
        a5:1d:b6:d8:d5:a3:6c:0a:a3:47:60:db:5e:bd:77:41:69:b3:
        b0:74:0f:6e:71:64:dd:3b:e5:5d:1c:41:50:3e:cb:7c:8b:ba:
        32:6a:0b:0c:2a:fd:74:dd:99:3a:88:a6:d2:bc:c4:b6:72:62:
        18:7c:e5:7e:8e:13:b1:cc:0b:74:8c:a4:96:67:c9:87:fb:75:
        e3:30:ef:f7:a8:13:bf:57:58:31:0b:31:9f:cd:cc:ae:c0:99:
        99:f6:f6:fb:f5:55:3d:12:f0:18:c3:0d:ca:76:52:f7:44:a2:
        da:57:2c:d4:22:49:64:56:be:55:c6:db:8e:51:72:70:74:99:
        37:28:67:78:a7:67:eb:07:31:50:b1:a9:b4:e2:88:63:55:fa:
        9b:95:a1:06:7b:a5:0d:a0:b5:f8:d5:f2:eb:06:a5:6e:dd:a5:
        e0:36:69:f3:ab:65:ae:bc:69:af:42:3c:7a:ab:ef:ca:8f:e1:
        53:59:d8:ed:de:4c:a3:cf:17:31:7c:d4:cc:bc:64:c8:ed:4b:
        55:a3:f1:f4:9b:94:30:76:8c:fc:7b:6c:85:84:ba:0b:e5:75:
        03:8b:01:70:e3:46:97:ca:c9:9f:87:21:6f:f3:74:7c:09:90:
        5e:61:24:2c:d6:99:5c:f6:cd:7b:79:f2:c2:a2:1d:89:2a:66:
        cc:6a:35:0f
-----BEGIN CERTIFICATE-----
MIID4DCCAsigAwIBAgIUF3MUseyd0+gmRhJlLl08uVQ2kBQwDQYJKoZIhvcNAQEL
BQAwXjETMBEGCgmSJomT8ixkARkWA29yZzEWMBQGCgmSJomT8ixkARkWBnNpbXBs
ZTETMBEGA1UECgwKU2ltcGxlIEluYzEaMBgGA1UEAwwRU2ltcGxlIFNpZ25pbmcg
Q0EwHhcNMjUwNTE0MDIzMTA0WhcNMjcwNTE0MDIzMTA0WjBbMRMwEQYKCZImiZPy
LGQBGRYDb3JnMRYwFAYKCZImiZPyLGQBGRYGc2ltcGxlMRMwEQYDVQQKDApTaW1w
bGUgSW5jMRcwFQYDVQQDDA53d3cuc2ltcGxlLm9yZzCCASIwDQYJKoZIhvcNAQEB
BQADggEPADCCAQoCggEBAJusFmS0XkNeXIh9wZnPJPPrd29l7XMzp5OffvVkCqo/
l048mg8xy//38p2JQde3ZtUTavTYIUau2JqQg2BPeAUTv7oW6jngrnrNp9Hwh5UQ
UPzwMcr9vSOEmN2h3FBh8z08cg2iWErv/dQ3mgxiOXZNRsTRperPhiW5z4bPGdtK
vrG3WMHJyGmPnyFs2DFY+iE0k1WwUg0zlK5a0Hpwhuq1nRiLmcOUGZPWo8AtPJgz
m1EpNOQg3PPk7Yu2gEhwLIha/1mpDwUwnGiroANsE9BBQnkPXSlSJS3//wJfgVBl
QYis+7DcwY2o297QjkKA/mhdEkklzs5b3Y7Ty852cpUCAwEAAaOBmDCBlTAOBgNV
HQ8BAf8EBAMCBaAwCQYDVR0TBAIwADAdBgNVHSUEFjAUBggrBgEFBQcDAQYIKwYB
BQUHAwIwHQYDVR0OBBYEFMmDe3M4tXIEaRbU7cq6n3mYr1fpMB8GA1UdIwQYMBaA
FJYclegYxWYdd7BTczykt8fSYw5MMBkGA1UdEQQSMBCCDnd3dy5zaW1wbGUub3Jn
MA0GCSqGSIb3DQEBCwUAA4IBAQClHbbY1aNsCqNHYNtevXdBabOwdA9ucWTdO+Vd
HEFQPst8i7oyagsMKv103Zk6iKbSvMS2cmIYfOV+jhOxzAt0jKSWZ8mH+3XjMO/3
qBO/V1gxCzGfzcyuwJmZ9vb79VU9EvAYww3KdlL3RKLaVyzUIklkVr5VxtuOUXJw
dJk3KGd4p2frBzFQsam04ohjVfqblaEGe6UNoLX41fLrBqVu3aXgNmnzq2WuvGmv
Qjx6q+/Kj+FTWdjt3kyjzxcxfNTMvGTI7UtVo/H0m5Qwdoz8e2yFhLoL5XUDiwFw
40aXysmfhyFv83R8CZBeYSQs1plc9s17efLCoh2JKmbMajUP
-----END CERTIFICATE-----
